; Function Attrs: nounwind uwtable
define internal i32 @drbg_hash_set_ctx_params(ptr noundef %0, ptr noundef %1) #0 {
  %3 = load ptr, ptr %0, align 8, !tbaa !18
  %.not = icmp eq ptr %3, null
  br i1 %.not, label %6, label %4

4:                                                ; preds = %2
  %5 = tail call i32 @CRYPTO_THREAD_write_lock(ptr noundef nonnull %3) #6
  %.not10 = icmp eq i32 %5, 0
  br i1 %.not10, label %11, label %6

6:                                                ; preds = %4, %2
  %7 = tail call fastcc i32 @drbg_hash_set_ctx_params_locked(ptr noundef nonnull %0, ptr noundef %1)
  %8 = load ptr, ptr %0, align 8, !tbaa !18
  %.not11 = icmp eq ptr %8, null
  br i1 %.not11, label %11, label %9

9:                                                ; preds = %6
  %10 = tail call i32 @CRYPTO_THREAD_unlock(ptr noundef nonnull %8) #6
  br label %11

11:                                               ; preds = %6, %9, %4
  %.0 = phi i32 [ 0, %4 ], [ %7, %9 ], [ %7, %6 ]
  ret i32 %.0
}